target datalayout = "e-m:e-p270:32:32-p271:32:32-p272:64:64-i64:64-i128:128-f80:128-n8:16:32:64-S128"
target triple = "x86_64-unknown-linux-gnu"

%"class.std::__cxx11::basic_string" = type { %"struct.std::__cxx11::basic_string<char>::_Alloc_hider", i64, %union.anon }
%"struct.std::__cxx11::basic_string<char>::_Alloc_hider" = type { ptr }
%union.anon = type { i64, [8 x i8] }
%"class.folly::IOBuf" = type { i64, ptr, i64, ptr, ptr, ptr, i64 }
%"class.std::basic_ostream.base" = type { ptr }
%"class.std::basic_streambuf" = type { ptr, ptr, ptr, ptr, ptr, ptr, ptr, %"class.std::locale" }
%"class.std::locale" = type { ptr }
%"class.std::basic_ios" = type { %"class.std::ios_base", ptr, i8, i8, ptr, ptr, ptr, ptr }
%"class.std::ios_base" = type { ptr, i64, i64, i32, i32, i32, ptr, %"struct.std::ios_base::_Words", [8 x %"struct.std::ios_base::_Words"], i32, ptr, %"class.std::locale" }
%"struct.std::ios_base::_Words" = type { ptr, i64 }
%"class.google::LogMessage" = type { ptr, ptr, %"struct.google::LogMessageTime" }
%"struct.google::LogMessageTime" = type { %struct.tm, i64, i32, i64 }
%struct.tm = type { i32, i32, i32, i32, i32, i32, i32, i32, i32, i64, ptr }
%struct.stat = type { i64, i64, i64, i32, i32, i32, i32, i64, i64, i64, i64, %struct.timespec, %struct.timespec, %struct.timespec, [3 x i64] }
%struct.timespec = type { i64, i64 }
%"class.std::basic_ofstream" = type { %"class.std::basic_ostream.base", %"class.std::basic_filebuf", %"class.std::basic_ios" }
%"class.std::basic_filebuf" = type { %"class.std::basic_streambuf", %union.pthread_mutex_t, %"class.std::__basic_file", i32, %struct.__mbstate_t, %struct.__mbstate_t, %struct.__mbstate_t, ptr, i64, i8, i8, i8, i8, ptr, ptr, i8, ptr, ptr, i64, ptr, ptr }
%union.pthread_mutex_t = type { %struct.__pthread_mutex_s }
%struct.__pthread_mutex_s = type { i32, i32, i32, i32, i32, i16, i16, %struct.__pthread_internal_list }
%struct.__pthread_internal_list = type { ptr, ptr }
%"class.std::__basic_file" = type <{ ptr, i8, [7 x i8] }>
%struct.__mbstate_t = type { i32, %union.anon.6 }
%union.anon.6 = type { i32 }

@.str.8 = private unnamed_addr constant [126 x i8] c"generated/home/dtcxzyw/WorkSpace/Projects/compilers/llvm-opt-benchmark/bench/proxygen/proxygen/proxygen/lib/utils/Logging.cpp\00", align 1
@.str.11 = private unnamed_addr constant [18 x i8] c"cannot open file \00", align 1
@.str.12 = private unnamed_addr constant [13 x i8] c"wrote chain \00", align 1
@.str.13 = private unnamed_addr constant [5 x i8] c" to \00", align 1

; Function Attrs: mustprogress uwtable
define linkonce_odr void @_ZN8proxygen12IOBufPrinter14printChainInfoB5cxx11EPKN5folly5IOBufE(ptr noalias sret(%"class.std::__cxx11::basic_string") align 8 %agg.result, ptr noundef %buf) #1 comdat align 2 {
entry:
  %result.ptr = alloca ptr, align 8
  %buf.addr = alloca ptr, align 8
  store ptr %agg.result, ptr %result.ptr, align 8
  store ptr %buf, ptr %buf.addr, align 8
  %0 = load ptr, ptr %buf.addr, align 8
  call void @_ZN8proxygen12IOBufPrinter10printChainB5cxx11EPKN5folly5IOBufENS0_6FormatEb(ptr sret(%"class.std::__cxx11::basic_string") align 8 %agg.result, ptr noundef %0, i8 noundef zeroext 2, i1 noundef zeroext false)
  ret void
}

; Function Attrs: mustprogress nounwind uwtable
define linkonce_odr noundef ptr @_ZNK5folly5IOBuf4nextEv(ptr noundef nonnull align 8 dereferenceable(56) %this) #2 comdat align 2 {
entry:
  %this.addr = alloca ptr, align 8
  store ptr %this, ptr %this.addr, align 8
  %this1 = load ptr, ptr %this.addr, align 8
  %next_ = getelementptr inbounds %"class.folly::IOBuf", ptr %this1, i32 0, i32 4
  %0 = load ptr, ptr %next_, align 8
  ret ptr %0
}

; Function Attrs: mustprogress nounwind uwtable
define linkonce_odr noundef i64 @_ZNK5folly5IOBuf6lengthEv(ptr noundef nonnull align 8 dereferenceable(56) %this) #2 comdat align 2 {
entry:
  %this.addr = alloca ptr, align 8
  store ptr %this, ptr %this.addr, align 8
  %this1 = load ptr, ptr %this.addr, align 8
  %length_ = getelementptr inbounds %"class.folly::IOBuf", ptr %this1, i32 0, i32 0
  %0 = load i64, ptr %length_, align 8
  ret i64 %0
}

; Function Attrs: mustprogress nounwind uwtable
define linkonce_odr noundef ptr @_ZNK5folly5IOBuf4dataEv(ptr noundef nonnull align 8 dereferenceable(56) %this) #2 comdat align 2 {
entry:
  %this.addr = alloca ptr, align 8
  store ptr %this, ptr %this.addr, align 8
  %this1 = load ptr, ptr %this.addr, align 8
  %data_ = getelementptr inbounds %"class.folly::IOBuf", ptr %this1, i32 0, i32 1
  %0 = load ptr, ptr %data_, align 8
  ret ptr %0
}

; Function Attrs: mustprogress uwtable
define void @_ZN8proxygen13dumpBinToFileERKNSt7__cxx1112basic_stringIcSt11char_traitsIcESaIcEEEPKN5folly5IOBufE(ptr noundef nonnull align 8 dereferenceable(32) %filename, ptr noundef %buf) #1 personality ptr @__gxx_personality_v0 {
entry:
  %filename.addr = alloca ptr, align 8
  %buf.addr = alloca ptr, align 8
  %fstat = alloca %struct.stat, align 8
  %exists = alloca i8, align 1
  %file = alloca %"class.std::basic_ofstream", align 8
  %exn.slot = alloca ptr, align 8
  %ehselector.slot = alloca i32, align 4
  %ref.tmp = alloca %"class.google::LogMessage", align 8
  %cleanup.dest.slot = alloca i32, align 4
  %first = alloca ptr, align 8
  %ref.tmp27 = alloca %"class.google::LogMessage", align 8
  %ref.tmp34 = alloca %"class.std::__cxx11::basic_string", align 8
  store ptr %filename, ptr %filename.addr, align 8
  store ptr %buf, ptr %buf.addr, align 8
  %0 = load ptr, ptr %filename.addr, align 8
  %call = call noundef ptr @_ZNKSt7__cxx1112basic_stringIcSt11char_traitsIcESaIcEE5c_strEv(ptr noundef nonnull align 8 dereferenceable(32) %0) #3
  %call1 = call i32 @stat(ptr noundef %call, ptr noundef %fstat) #3
  %cmp = icmp eq i32 %call1, 0
  %frombool = zext i1 %cmp to i8
  store i8 %frombool, ptr %exists, align 1
  %1 = load i8, ptr %exists, align 1
  %tobool = trunc i8 %1 to i1
  br i1 %tobool, label %if.then, label %if.end

if.then:                                          ; preds = %entry
  br label %cleanup.cont

if.end:                                           ; preds = %entry
  %2 = load ptr, ptr %filename.addr, align 8
  call void @_ZNSt14basic_ofstreamIcSt11char_traitsIcEEC1ERKNSt7__cxx1112basic_stringIcS1_SaIcEEESt13_Ios_Openmode(ptr noundef nonnull align 8 dereferenceable(248) %file, ptr noundef nonnull align 8 dereferenceable(32) %2, i32 noundef 4)
  %call2 = invoke noundef zeroext i1 @_ZNSt14basic_ofstreamIcSt11char_traitsIcEE7is_openEv(ptr noundef nonnull align 8 dereferenceable(248) %file)
          to label %invoke.cont unwind label %lpad

invoke.cont:                                      ; preds = %if.end
  br i1 %call2, label %if.end12, label %if.then3

if.then3:                                         ; preds = %invoke.cont
  invoke void @_ZN6google10LogMessageC1EPKcii(ptr noundef nonnull align 8 dereferenceable(96) %ref.tmp, ptr noundef @.str.8, i32 noundef 134, i32 noundef 2)
          to label %invoke.cont4 unwind label %lpad

invoke.cont4:                                     ; preds = %if.then3
  %call7 = invoke noundef nonnull align 8 dereferenceable(8) ptr @_ZN6google10LogMessage6streamEv(ptr noundef nonnull align 8 dereferenceable(96) %ref.tmp)
          to label %invoke.cont6 unwind label %lpad5

invoke.cont6:                                     ; preds = %invoke.cont4
  %call9 = invoke noundef nonnull align 8 dereferenceable(8) ptr @_ZStlsISt11char_traitsIcEERSt13basic_ostreamIcT_ES5_PKc(ptr noundef nonnull align 8 dereferenceable(8) %call7, ptr noundef @.str.11)
          to label %invoke.cont8 unwind label %lpad5

invoke.cont8:                                     ; preds = %invoke.cont6
  %3 = load ptr, ptr %filename.addr, align 8
  %call11 = invoke noundef nonnull align 8 dereferenceable(8) ptr @_ZStlsIcSt11char_traitsIcESaIcEERSt13basic_ostreamIT_T0_ES7_RKNSt7__cxx1112basic_stringIS4_S5_T1_EE(ptr noundef nonnull align 8 dereferenceable(8) %call9, ptr noundef nonnull align 8 dereferenceable(32) %3)
          to label %invoke.cont10 unwind label %lpad5

invoke.cont10:                                    ; preds = %invoke.cont8
  call void @_ZN6google10LogMessageD1Ev(ptr noundef nonnull align 8 dereferenceable(96) %ref.tmp) #3
  store i32 1, ptr %cleanup.dest.slot, align 4
  br label %cleanup

lpad:                                             ; preds = %invoke.cont26, %do.end, %invoke.cont21, %invoke.cont19, %invoke.cont17, %do.body, %if.then14, %if.then3, %if.end
  %4 = landingpad { ptr, i32 }
          cleanup
  %5 = extractvalue { ptr, i32 } %4, 0
  store ptr %5, ptr %exn.slot, align 8
  %6 = extractvalue { ptr, i32 } %4, 1
  store i32 %6, ptr %ehselector.slot, align 4
  br label %ehcleanup43

lpad5:                                            ; preds = %invoke.cont8, %invoke.cont6, %invoke.cont4
  %7 = landingpad { ptr, i32 }
          cleanup
  %8 = extractvalue { ptr, i32 } %7, 0
  store ptr %8, ptr %exn.slot, align 8
  %9 = extractvalue { ptr, i32 } %7, 1
  store i32 %9, ptr %ehselector.slot, align 4
  call void @_ZN6google10LogMessageD1Ev(ptr noundef nonnull align 8 dereferenceable(96) %ref.tmp) #3
  br label %ehcleanup43

if.end12:                                         ; preds = %invoke.cont
  %10 = load ptr, ptr %buf.addr, align 8
  %tobool13 = icmp ne ptr %10, null
  br i1 %tobool13, label %if.end16, label %if.then14

if.then14:                                        ; preds = %if.end12
  invoke void @_ZNSt14basic_ofstreamIcSt11char_traitsIcEE5closeEv(ptr noundef nonnull align 8 dereferenceable(248) %file)
          to label %invoke.cont15 unwind label %lpad

invoke.cont15:                                    ; preds = %if.then14
  store i32 1, ptr %cleanup.dest.slot, align 4
  br label %cleanup

if.end16:                                         ; preds = %if.end12
  %11 = load ptr, ptr %buf.addr, align 8
  store ptr %11, ptr %first, align 8
  br label %do.body

do.body:                                          ; preds = %do.cond, %if.end16
  %12 = load ptr, ptr %buf.addr, align 8
  %call18 = invoke noundef ptr @_ZNK5folly5IOBuf4dataEv(ptr noundef nonnull align 8 dereferenceable(56) %12)
          to label %invoke.cont17 unwind label %lpad

invoke.cont17:                                    ; preds = %do.body
  %13 = load ptr, ptr %buf.addr, align 8
  %call20 = invoke noundef i64 @_ZNK5folly5IOBuf6lengthEv(ptr noundef nonnull align 8 dereferenceable(56) %13)
          to label %invoke.cont19 unwind label %lpad

invoke.cont19:                                    ; preds = %invoke.cont17
  %call22 = invoke noundef nonnull align 8 dereferenceable(8) ptr @_ZNSo5writeEPKcl(ptr noundef nonnull align 8 dereferenceable(8) %file, ptr noundef %call18, i64 noundef %call20)
          to label %invoke.cont21 unwind label %lpad

invoke.cont21:                                    ; preds = %invoke.cont19
  %14 = load ptr, ptr %buf.addr, align 8
  %call24 = invoke noundef ptr @_ZNK5folly5IOBuf4nextEv(ptr noundef nonnull align 8 dereferenceable(56) %14)
          to label %invoke.cont23 unwind label %lpad

invoke.cont23:                                    ; preds = %invoke.cont21
  store ptr %call24, ptr %buf.addr, align 8
  br label %do.cond

do.cond:                                          ; preds = %invoke.cont23
  %15 = load ptr, ptr %buf.addr, align 8
  %16 = load ptr, ptr %first, align 8
  %cmp25 = icmp ne ptr %15, %16
  br i1 %cmp25, label %do.body, label %do.end, !llvm.loop !9

do.end:                                           ; preds = %do.cond
  invoke void @_ZNSt14basic_ofstreamIcSt11char_traitsIcEE5closeEv(ptr noundef nonnull align 8 dereferenceable(248) %file)
          to label %invoke.cont26 unwind label %lpad

invoke.cont26:                                    ; preds = %do.end
  invoke void @_ZN6google10LogMessageC1EPKci(ptr noundef nonnull align 8 dereferenceable(96) %ref.tmp27, ptr noundef @.str.8, i32 noundef 147)
          to label %invoke.cont28 unwind label %lpad

invoke.cont28:                                    ; preds = %invoke.cont26
  %call31 = invoke noundef nonnull align 8 dereferenceable(8) ptr @_ZN6google10LogMessage6streamEv(ptr noundef nonnull align 8 dereferenceable(96) %ref.tmp27)
          to label %invoke.cont30 unwind label %lpad29

invoke.cont30:                                    ; preds = %invoke.cont28
  %call33 = invoke noundef nonnull align 8 dereferenceable(8) ptr @_ZStlsISt11char_traitsIcEERSt13basic_ostreamIcT_ES5_PKc(ptr noundef nonnull align 8 dereferenceable(8) %call31, ptr noundef @.str.12)
          to label %invoke.cont32 unwind label %lpad29

invoke.cont32:                                    ; preds = %invoke.cont30
  %17 = load ptr, ptr %buf.addr, align 8
  invoke void @_ZN8proxygen12IOBufPrinter14printChainInfoB5cxx11EPKN5folly5IOBufE(ptr sret(%"class.std::__cxx11::basic_string") align 8 %ref.tmp34, ptr noundef %17)
          to label %invoke.cont35 unwind label %lpad29

invoke.cont35:                                    ; preds = %invoke.cont32
  %call38 = invoke noundef nonnull align 8 dereferenceable(8) ptr @_ZStlsIcSt11char_traitsIcESaIcEERSt13basic_ostreamIT_T0_ES7_RKNSt7__cxx1112basic_stringIS4_S5_T1_EE(ptr noundef nonnull align 8 dereferenceable(8) %call33, ptr noundef nonnull align 8 dereferenceable(32) %ref.tmp34)
          to label %invoke.cont37 unwind label %lpad36

invoke.cont37:                                    ; preds = %invoke.cont35
  %call40 = invoke noundef nonnull align 8 dereferenceable(8) ptr @_ZStlsISt11char_traitsIcEERSt13basic_ostreamIcT_ES5_PKc(ptr noundef nonnull align 8 dereferenceable(8) %call38, ptr noundef @.str.13)
          to label %invoke.cont39 unwind label %lpad36

invoke.cont39:                                    ; preds = %invoke.cont37
  %18 = load ptr, ptr %filename.addr, align 8
  %call42 = invoke noundef nonnull align 8 dereferenceable(8) ptr @_ZStlsIcSt11char_traitsIcESaIcEERSt13basic_ostreamIT_T0_ES7_RKNSt7__cxx1112basic_stringIS4_S5_T1_EE(ptr noundef nonnull align 8 dereferenceable(8) %call40, ptr noundef nonnull align 8 dereferenceable(32) %18)
          to label %invoke.cont41 unwind label %lpad36

invoke.cont41:                                    ; preds = %invoke.cont39
  call void @_ZNSt7__cxx1112basic_stringIcSt11char_traitsIcESaIcEED1Ev(ptr noundef nonnull align 8 dereferenceable(32) %ref.tmp34) #3
  call void @_ZN6google10LogMessageD1Ev(ptr noundef nonnull align 8 dereferenceable(96) %ref.tmp27) #3
  store i32 0, ptr %cleanup.dest.slot, align 4
  br label %cleanup

cleanup:                                          ; preds = %invoke.cont41, %invoke.cont15, %invoke.cont10
  call void @_ZNSt14basic_ofstreamIcSt11char_traitsIcEED1Ev(ptr noundef nonnull align 8 dereferenceable(248) %file) #3
  %cleanup.dest = load i32, ptr %cleanup.dest.slot, align 4
  switch i32 %cleanup.dest, label %unreachable [
    i32 0, label %cleanup.cont
    i32 1, label %cleanup.cont
  ]

cleanup.cont:                                     ; preds = %cleanup, %cleanup, %if.then
  ret void

lpad29:                                           ; preds = %invoke.cont32, %invoke.cont30, %invoke.cont28
  %19 = landingpad { ptr, i32 }
          cleanup
  %20 = extractvalue { ptr, i32 } %19, 0
  store ptr %20, ptr %exn.slot, align 8
  %21 = extractvalue { ptr, i32 } %19, 1
  store i32 %21, ptr %ehselector.slot, align 4
  br label %ehcleanup

lpad36:                                           ; preds = %invoke.cont39, %invoke.cont37, %invoke.cont35
  %22 = landingpad { ptr, i32 }
          cleanup
  %23 = extractvalue { ptr, i32 } %22, 0
  store ptr %23, ptr %exn.slot, align 8
  %24 = extractvalue { ptr, i32 } %22, 1
  store i32 %24, ptr %ehselector.slot, align 4
  call void @_ZNSt7__cxx1112basic_stringIcSt11char_traitsIcESaIcEED1Ev(ptr noundef nonnull align 8 dereferenceable(32) %ref.tmp34) #3
  br label %ehcleanup

ehcleanup:                                        ; preds = %lpad36, %lpad29
  call void @_ZN6google10LogMessageD1Ev(ptr noundef nonnull align 8 dereferenceable(96) %ref.tmp27) #3
  br label %ehcleanup43

ehcleanup43:                                      ; preds = %ehcleanup, %lpad5, %lpad
  call void @_ZNSt14basic_ofstreamIcSt11char_traitsIcEED1Ev(ptr noundef nonnull align 8 dereferenceable(248) %file) #3
  br label %eh.resume

eh.resume:                                        ; preds = %ehcleanup43
  %exn = load ptr, ptr %exn.slot, align 8
  %sel = load i32, ptr %ehselector.slot, align 4
  %lpad.val = insertvalue { ptr, i32 } poison, ptr %exn, 0
  %lpad.val44 = insertvalue { ptr, i32 } %lpad.val, i32 %sel, 1
  resume { ptr, i32 } %lpad.val44

unreachable:                                      ; preds = %cleanup
  unreachable
}