; Function Attrs: mustprogress uwtable
define void @_ZN8proxygen13dumpBinToFileERKNSt7__cxx1112basic_stringIcSt11char_traitsIcESaIcEEEPKN5folly5IOBufE(ptr noundef nonnull align 8 dereferenceable(32) %filename, ptr noundef readonly %buf) local_unnamed_addr #3 personality ptr @__gxx_personality_v0 {
entry:
  %fstat = alloca %struct.stat, align 8
  %file = alloca %"class.std::basic_ofstream", align 8
  %ref.tmp = alloca %"class.google::LogMessage", align 8
  %ref.tmp27 = alloca %"class.google::LogMessage", align 8
  %ref.tmp34 = alloca %"class.std::__cxx11::basic_string", align 8
  %call = tail call noundef ptr @_ZNKSt7__cxx1112basic_stringIcSt11char_traitsIcESaIcEE5c_strEv(ptr noundef nonnull align 8 dereferenceable(32) %filename) #20
  %call1 = call i32 @stat(ptr noundef %call, ptr noundef nonnull %fstat) #20
  %cmp = icmp eq i32 %call1, 0
  br i1 %cmp, label %cleanup.cont, label %if.end

if.end:                                           ; preds = %entry
  call void @_ZNSt14basic_ofstreamIcSt11char_traitsIcEEC1ERKNSt7__cxx1112basic_stringIcS1_SaIcEEESt13_Ios_Openmode(ptr noundef nonnull align 8 dereferenceable(248) %file, ptr noundef nonnull align 8 dereferenceable(32) %filename, i32 noundef 4)
  %call2 = invoke noundef zeroext i1 @_ZNSt14basic_ofstreamIcSt11char_traitsIcEE7is_openEv(ptr noundef nonnull align 8 dereferenceable(248) %file)
          to label %invoke.cont unwind label %lpad.loopexit.split-lp

invoke.cont:                                      ; preds = %if.end
  br i1 %call2, label %if.end12, label %if.then3

if.then3:                                         ; preds = %invoke.cont
  invoke void @_ZN6google10LogMessageC1EPKcii(ptr noundef nonnull align 8 dereferenceable(96) %ref.tmp, ptr noundef nonnull @.str.8, i32 noundef 134, i32 noundef 2)
          to label %invoke.cont4 unwind label %lpad.loopexit.split-lp

invoke.cont4:                                     ; preds = %if.then3
  %call7 = invoke noundef nonnull align 8 dereferenceable(8) ptr @_ZN6google10LogMessage6streamEv(ptr noundef nonnull align 8 dereferenceable(96) %ref.tmp)
          to label %invoke.cont6 unwind label %lpad5

invoke.cont6:                                     ; preds = %invoke.cont4
  %call9 = invoke noundef nonnull align 8 dereferenceable(8) ptr @_ZStlsISt11char_traitsIcEERSt13basic_ostreamIcT_ES5_PKc(ptr noundef nonnull align 8 dereferenceable(8) %call7, ptr noundef nonnull @.str.11)
          to label %invoke.cont8 unwind label %lpad5

invoke.cont8:                                     ; preds = %invoke.cont6
  %call11 = invoke noundef nonnull align 8 dereferenceable(8) ptr @_ZStlsIcSt11char_traitsIcESaIcEERSt13basic_ostreamIT_T0_ES7_RKNSt7__cxx1112basic_stringIS4_S5_T1_EE(ptr noundef nonnull align 8 dereferenceable(8) %call9, ptr noundef nonnull align 8 dereferenceable(32) %filename)
          to label %cleanup.sink.split unwind label %lpad5

lpad.loopexit:                                    ; preds = %do.body
  %lpad.loopexit12 = landingpad { ptr, i32 }
          cleanup
  br label %ehcleanup43

lpad.loopexit.split-lp:                           ; preds = %if.end, %if.then3, %if.then14, %do.end, %invoke.cont26
  %lpad.loopexit.split-lp13 = landingpad { ptr, i32 }
          cleanup
  br label %ehcleanup43

lpad5:                                            ; preds = %invoke.cont8, %invoke.cont6, %invoke.cont4
  %0 = landingpad { ptr, i32 }
          cleanup
  call void @_ZN6google10LogMessageD1Ev(ptr noundef nonnull align 8 dereferenceable(96) %ref.tmp) #20
  br label %ehcleanup43

if.end12:                                         ; preds = %invoke.cont
  %tobool13.not = icmp eq ptr %buf, null
  br i1 %tobool13.not, label %if.then14, label %do.body

if.then14:                                        ; preds = %if.end12
  invoke void @_ZNSt14basic_ofstreamIcSt11char_traitsIcEE5closeEv(ptr noundef nonnull align 8 dereferenceable(248) %file)
          to label %cleanup unwind label %lpad.loopexit.split-lp

do.body:                                          ; preds = %if.end12, %invoke.cont21
  %buf.addr.0 = phi ptr [ %3, %invoke.cont21 ], [ %buf, %if.end12 ]
  %data_.i = getelementptr inbounds i8, ptr %buf.addr.0, i64 8
  %1 = load ptr, ptr %data_.i, align 8
  %2 = load i64, ptr %buf.addr.0, align 8
  %call22 = invoke noundef nonnull align 8 dereferenceable(8) ptr @_ZNSo5writeEPKcl(ptr noundef nonnull align 8 dereferenceable(8) %file, ptr noundef %1, i64 noundef %2)
          to label %invoke.cont21 unwind label %lpad.loopexit

invoke.cont21:                                    ; preds = %do.body
  %next_.i = getelementptr inbounds i8, ptr %buf.addr.0, i64 32
  %3 = load ptr, ptr %next_.i, align 8
  %cmp25.not = icmp eq ptr %3, %buf
  br i1 %cmp25.not, label %do.end, label %do.body, !llvm.loop !15

do.end:                                           ; preds = %invoke.cont21
  invoke void @_ZNSt14basic_ofstreamIcSt11char_traitsIcEE5closeEv(ptr noundef nonnull align 8 dereferenceable(248) %file)
          to label %invoke.cont26 unwind label %lpad.loopexit.split-lp

invoke.cont26:                                    ; preds = %do.end
  invoke void @_ZN6google10LogMessageC1EPKci(ptr noundef nonnull align 8 dereferenceable(96) %ref.tmp27, ptr noundef nonnull @.str.8, i32 noundef 147)
          to label %invoke.cont28 unwind label %lpad.loopexit.split-lp

invoke.cont28:                                    ; preds = %invoke.cont26
  %call31 = invoke noundef nonnull align 8 dereferenceable(8) ptr @_ZN6google10LogMessage6streamEv(ptr noundef nonnull align 8 dereferenceable(96) %ref.tmp27)
          to label %invoke.cont30 unwind label %lpad29

invoke.cont30:                                    ; preds = %invoke.cont28
  %call33 = invoke noundef nonnull align 8 dereferenceable(8) ptr @_ZStlsISt11char_traitsIcEERSt13basic_ostreamIcT_ES5_PKc(ptr noundef nonnull align 8 dereferenceable(8) %call31, ptr noundef nonnull @.str.12)
          to label %invoke.cont32 unwind label %lpad29

invoke.cont32:                                    ; preds = %invoke.cont30
  invoke void @_ZN8proxygen12IOBufPrinter10printChainB5cxx11EPKN5folly5IOBufENS0_6FormatEb(ptr nonnull sret(%"class.std::__cxx11::basic_string") align 8 %ref.tmp34, ptr noundef nonnull %buf, i8 noundef zeroext 2, i1 noundef zeroext false)
          to label %invoke.cont35 unwind label %lpad29

invoke.cont35:                                    ; preds = %invoke.cont32
  %call38 = invoke noundef nonnull align 8 dereferenceable(8) ptr @_ZStlsIcSt11char_traitsIcESaIcEERSt13basic_ostreamIT_T0_ES7_RKNSt7__cxx1112basic_stringIS4_S5_T1_EE(ptr noundef nonnull align 8 dereferenceable(8) %call33, ptr noundef nonnull align 8 dereferenceable(32) %ref.tmp34)
          to label %invoke.cont37 unwind label %lpad36

invoke.cont37:                                    ; preds = %invoke.cont35
  %call40 = invoke noundef nonnull align 8 dereferenceable(8) ptr @_ZStlsISt11char_traitsIcEERSt13basic_ostreamIcT_ES5_PKc(ptr noundef nonnull align 8 dereferenceable(8) %call38, ptr noundef nonnull @.str.13)
          to label %invoke.cont39 unwind label %lpad36

invoke.cont39:                                    ; preds = %invoke.cont37
  %call42 = invoke noundef nonnull align 8 dereferenceable(8) ptr @_ZStlsIcSt11char_traitsIcESaIcEERSt13basic_ostreamIT_T0_ES7_RKNSt7__cxx1112basic_stringIS4_S5_T1_EE(ptr noundef nonnull align 8 dereferenceable(8) %call40, ptr noundef nonnull align 8 dereferenceable(32) %filename)
          to label %invoke.cont41 unwind label %lpad36

invoke.cont41:                                    ; preds = %invoke.cont39
  call void @_ZNSt7__cxx1112basic_stringIcSt11char_traitsIcESaIcEED1Ev(ptr noundef nonnull align 8 dereferenceable(32) %ref.tmp34) #20
  br label %cleanup.sink.split

cleanup.sink.split:                               ; preds = %invoke.cont8, %invoke.cont41
  %ref.tmp27.sink = phi ptr [ %ref.tmp27, %invoke.cont41 ], [ %ref.tmp, %invoke.cont8 ]
  call void @_ZN6google10LogMessageD1Ev(ptr noundef nonnull align 8 dereferenceable(96) %ref.tmp27.sink) #20
  br label %cleanup

cleanup:                                          ; preds = %cleanup.sink.split, %if.then14
  call void @_ZNSt14basic_ofstreamIcSt11char_traitsIcEED1Ev(ptr noundef nonnull align 8 dereferenceable(248) %file) #20
  br label %cleanup.cont

cleanup.cont:                                     ; preds = %entry, %cleanup
  ret void

lpad29:                                           ; preds = %invoke.cont32, %invoke.cont30, %invoke.cont28
  %4 = landingpad { ptr, i32 }
          cleanup
  br label %ehcleanup

lpad36:                                           ; preds = %invoke.cont39, %invoke.cont37, %invoke.cont35
  %5 = landingpad { ptr, i32 }
          cleanup
  call void @_ZNSt7__cxx1112basic_stringIcSt11char_traitsIcESaIcEED1Ev(ptr noundef nonnull align 8 dereferenceable(32) %ref.tmp34) #20
  br label %ehcleanup

ehcleanup:                                        ; preds = %lpad36, %lpad29
  %.pn = phi { ptr, i32 } [ %5, %lpad36 ], [ %4, %lpad29 ]
  call void @_ZN6google10LogMessageD1Ev(ptr noundef nonnull align 8 dereferenceable(96) %ref.tmp27) #20
  br label %ehcleanup43

ehcleanup43:                                      ; preds = %lpad.loopexit, %lpad.loopexit.split-lp, %ehcleanup, %lpad5
  %.pn.pn = phi { ptr, i32 } [ %.pn, %ehcleanup ], [ %0, %lpad5 ], [ %lpad.loopexit12, %lpad.loopexit ], [ %lpad.loopexit.split-lp13, %lpad.loopexit.split-lp ]
  call void @_ZNSt14basic_ofstreamIcSt11char_traitsIcEED1Ev(ptr noundef nonnull align 8 dereferenceable(248) %file) #20
  resume { ptr, i32 } %.pn.pn
}